target datalayout = "e-m:e-p270:32:32-p271:32:32-p272:64:64-i64:64-i128:128-f80:128-n8:16:32:64-S128"
target triple = "x86_64-pc-linux-gnu"

%struct._zval_struct = type { %union._zend_value, %union.anon.3, %union.anon.6 }
%union._zend_value = type { i64 }
%union.anon.3 = type { i32 }
%union.anon.6 = type { i32 }
%struct._zend_array = type { %struct._zend_refcounted_h, %union.anon.0, i32, %union.anon.1, i32, i32, i32, i32, i64, ptr }
%struct._zend_refcounted_h = type { i32, %union.anon }
%union.anon = type { i32 }
%union.anon.0 = type { i32 }
%union.anon.1 = type { ptr }
%struct._zend_class_entry = type { i8, ptr, %union.anon.9, i32, i32, i32, i32, ptr, ptr, ptr, %struct._zend_array, %struct._zend_array, %struct._zend_array, ptr, ptr, ptr, ptr, ptr, ptr, ptr, ptr, ptr, ptr, ptr, ptr, ptr, ptr, ptr, ptr, ptr, ptr, ptr, %union.anon.10, ptr, ptr, ptr, ptr, i32, i32, %union.anon.11, ptr, ptr, ptr, ptr, i32, ptr, ptr, %union.anon.12 }
%union.anon.9 = type { ptr }
%union.anon.10 = type { ptr }
%union.anon.11 = type { ptr }
%union.anon.12 = type { %struct.anon.13 }
%struct.anon.13 = type { ptr, i32, i32 }
%struct.anon.4 = type { i8, i8, %union.anon.5 }
%union.anon.5 = type { i16 }
%struct._zend_string = type { %struct._zend_refcounted_h, i64, i64, [1 x i8] }
%struct.zend_type = type { ptr, i32 }
%struct._zend_property_info = type { i32, i32, ptr, ptr, ptr, ptr, %struct.zend_type }

@.str.19 = private unnamed_addr constant [2 x i8] c"*\00", align 1

; Function Attrs: nounwind uwtable
define internal i32 @is_property_visibility_changed(ptr noundef %0, ptr noundef %1) #0 {
  %3 = alloca ptr, align 8
  %4 = alloca ptr, align 8
  %5 = alloca ptr, align 8
  %6 = alloca ptr, align 8
  %7 = alloca ptr, align 8
  %8 = alloca ptr, align 8
  %9 = alloca ptr, align 8
  %10 = alloca ptr, align 8
  %11 = alloca ptr, align 8
  %12 = alloca i64, align 8
  %13 = alloca ptr, align 8
  %14 = alloca ptr, align 8
  %15 = alloca ptr, align 8
  %16 = alloca ptr, align 8
  %17 = alloca ptr, align 8
  %18 = alloca i32, align 4
  %19 = alloca i32, align 4
  %20 = alloca ptr, align 8
  %21 = alloca ptr, align 8
  %22 = alloca ptr, align 8
  %23 = alloca ptr, align 8
  %24 = alloca ptr, align 8
  %25 = alloca ptr, align 8
  %26 = alloca i32, align 4
  %27 = alloca ptr, align 8
  %28 = alloca ptr, align 8
  %29 = alloca ptr, align 8
  %30 = alloca ptr, align 8
  %31 = alloca ptr, align 8
  %32 = alloca i64, align 8
  %33 = alloca ptr, align 8
  %34 = alloca ptr, align 8
  %35 = alloca ptr, align 8
  %36 = alloca ptr, align 8
  store ptr %0, ptr %27, align 8
  store ptr %1, ptr %28, align 8
  %37 = load ptr, ptr %27, align 8
  %38 = getelementptr inbounds %struct._zend_class_entry, ptr %37, i32 0, i32 11
  store ptr %38, ptr %17, align 8
  %39 = load ptr, ptr %17, align 8
  %40 = getelementptr inbounds %struct._zend_array, ptr %39, i32 0, i32 5
  %41 = load i32, ptr %40, align 4
  %42 = icmp ugt i32 %41, 0
  br i1 %42, label %43, label %263

43:                                               ; preds = %2
  store ptr null, ptr %30, align 8
  %44 = load ptr, ptr %28, align 8
  %45 = getelementptr inbounds %struct._zval_struct, ptr %44, i32 0, i32 0
  %46 = load ptr, ptr %45, align 8
  %47 = call i32 @zend_unmangle_property_name_ex(ptr noundef %46, ptr noundef %30, ptr noundef %31, ptr noundef %32)
  %48 = icmp eq i32 %47, -1
  %49 = xor i1 %48, true
  %50 = xor i1 %49, true
  %51 = zext i1 %50 to i32
  %52 = sext i32 %51 to i64
  %53 = icmp ne i64 %52, 0
  br i1 %53, label %54, label %83

54:                                               ; preds = %43
  %55 = load ptr, ptr %28, align 8
  store ptr %55, ptr %14, align 8
  %56 = load ptr, ptr %14, align 8
  %57 = getelementptr inbounds %struct._zval_struct, ptr %56, i32 0, i32 1
  %58 = getelementptr inbounds %struct.anon.4, ptr %57, i32 0, i32 1
  %59 = load i8, ptr %58, align 1
  %60 = zext i8 %59 to i32
  %61 = icmp ne i32 %60, 0
  br i1 %61, label %62, label %82

62:                                               ; preds = %54
  %63 = load ptr, ptr %14, align 8
  store ptr %63, ptr %8, align 8
  %64 = load ptr, ptr %8, align 8
  %65 = getelementptr inbounds %struct._zval_struct, ptr %64, i32 0, i32 1
  %66 = getelementptr inbounds %struct.anon.4, ptr %65, i32 0, i32 1
  %67 = load i8, ptr %66, align 1
  %68 = zext i8 %67 to i32
  %69 = icmp ne i32 %68, 0
  call void @llvm.assume(i1 %69)
  %70 = load ptr, ptr %8, align 8
  %71 = load ptr, ptr %70, align 8
  store ptr %71, ptr %7, align 8
  %72 = load ptr, ptr %7, align 8
  %73 = load i32, ptr %72, align 4
  %74 = icmp ugt i32 %73, 0
  call void @llvm.assume(i1 %74)
  %75 = load ptr, ptr %7, align 8
  %76 = load i32, ptr %75, align 4
  %77 = add i32 %76, -1
  store i32 %77, ptr %75, align 4
  %78 = icmp ne i32 %77, 0
  br i1 %78, label %82, label %79

79:                                               ; preds = %62
  %80 = load ptr, ptr %14, align 8
  %81 = load ptr, ptr %80, align 8
  call void @_efree(ptr noundef %81) #9
  br label %82

82:                                               ; preds = %79, %62, %54
  store i32 -1, ptr %26, align 4
  br label %264

83:                                               ; preds = %43
  %84 = load ptr, ptr %30, align 8
  %85 = icmp eq ptr %84, null
  br i1 %85, label %86, label %167

86:                                               ; preds = %83
  %87 = load ptr, ptr %27, align 8
  %88 = getelementptr inbounds %struct._zend_class_entry, ptr %87, i32 0, i32 11
  %89 = load ptr, ptr %28, align 8
  %90 = getelementptr inbounds %struct._zval_struct, ptr %89, i32 0, i32 0
  %91 = load ptr, ptr %90, align 8
  store ptr %88, ptr %21, align 8
  store ptr %91, ptr %22, align 8
  %92 = load ptr, ptr %21, align 8
  %93 = load ptr, ptr %22, align 8
  %94 = call ptr @zend_hash_find(ptr noundef %92, ptr noundef %93) #9
  store ptr %94, ptr %23, align 8
  %95 = load ptr, ptr %23, align 8
  %96 = icmp ne ptr %95, null
  br i1 %96, label %97, label %103

97:                                               ; preds = %86
  %98 = load ptr, ptr %23, align 8
  %99 = load ptr, ptr %98, align 8
  %100 = icmp ne ptr %99, null
  call void @llvm.assume(i1 %100)
  %101 = load ptr, ptr %23, align 8
  %102 = load ptr, ptr %101, align 8
  store ptr %102, ptr %20, align 8
  br label %104

103:                                              ; preds = %86
  store ptr null, ptr %20, align 8
  br label %104

104:                                              ; preds = %103, %97
  %105 = load ptr, ptr %20, align 8
  store ptr %105, ptr %29, align 8
  %106 = load ptr, ptr %29, align 8
  %107 = icmp ne ptr %106, null
  br i1 %107, label %108, label %166

108:                                              ; preds = %104
  %109 = load ptr, ptr %28, align 8
  store ptr %109, ptr %15, align 8
  %110 = load ptr, ptr %15, align 8
  %111 = getelementptr inbounds %struct._zval_struct, ptr %110, i32 0, i32 1
  %112 = getelementptr inbounds %struct.anon.4, ptr %111, i32 0, i32 1
  %113 = load i8, ptr %112, align 1
  %114 = zext i8 %113 to i32
  %115 = icmp ne i32 %114, 0
  br i1 %115, label %116, label %136

116:                                              ; preds = %108
  %117 = load ptr, ptr %15, align 8
  store ptr %117, ptr %6, align 8
  %118 = load ptr, ptr %6, align 8
  %119 = getelementptr inbounds %struct._zval_struct, ptr %118, i32 0, i32 1
  %120 = getelementptr inbounds %struct.anon.4, ptr %119, i32 0, i32 1
  %121 = load i8, ptr %120, align 1
  %122 = zext i8 %121 to i32
  %123 = icmp ne i32 %122, 0
  call void @llvm.assume(i1 %123)
  %124 = load ptr, ptr %6, align 8
  %125 = load ptr, ptr %124, align 8
  store ptr %125, ptr %5, align 8
  %126 = load ptr, ptr %5, align 8
  %127 = load i32, ptr %126, align 4
  %128 = icmp ugt i32 %127, 0
  call void @llvm.assume(i1 %128)
  %129 = load ptr, ptr %5, align 8
  %130 = load i32, ptr %129, align 4
  %131 = add i32 %130, -1
  store i32 %131, ptr %129, align 4
  %132 = icmp ne i32 %131, 0
  br i1 %132, label %136, label %133

133:                                              ; preds = %116
  %134 = load ptr, ptr %15, align 8
  %135 = load ptr, ptr %134, align 8
  call void @_efree(ptr noundef %135) #9
  br label %136

136:                                              ; preds = %133, %116, %108
  br label %137

137:                                              ; preds = %136
  %138 = load ptr, ptr %28, align 8
  store ptr %138, ptr %33, align 8
  %139 = load ptr, ptr %29, align 8
  %140 = getelementptr inbounds %struct._zend_property_info, ptr %139, i32 0, i32 2
  %141 = load ptr, ptr %140, align 8
  store ptr %141, ptr %34, align 8
  %142 = load ptr, ptr %34, align 8
  %143 = load ptr, ptr %33, align 8
  %144 = getelementptr inbounds %struct._zval_struct, ptr %143, i32 0, i32 0
  store ptr %142, ptr %144, align 8
  %145 = load ptr, ptr %34, align 8
  %146 = getelementptr inbounds %struct._zend_string, ptr %145, i32 0, i32 0
  %147 = getelementptr inbounds %struct._zend_refcounted_h, ptr %146, i32 0, i32 1
  %148 = load i32, ptr %147, align 4
  store i32 %148, ptr %18, align 4
  %149 = load i32, ptr %18, align 4
  %150 = and i32 %149, 1008
  %151 = and i32 %150, 64
  %152 = icmp ne i32 %151, 0
  br i1 %152, label %153, label %156

153:                                              ; preds = %137
  %154 = load ptr, ptr %33, align 8
  %155 = getelementptr inbounds %struct._zval_struct, ptr %154, i32 0, i32 1
  store i32 6, ptr %155, align 8
  br label %164

156:                                              ; preds = %137
  %157 = load ptr, ptr %34, align 8
  %158 = getelementptr inbounds %struct._zend_string, ptr %157, i32 0, i32 0
  store ptr %158, ptr %24, align 8
  %159 = load ptr, ptr %24, align 8
  %160 = load i32, ptr %159, align 4
  %161 = add i32 %160, 1
  store i32 %161, ptr %159, align 4
  %162 = load ptr, ptr %33, align 8
  %163 = getelementptr inbounds %struct._zval_struct, ptr %162, i32 0, i32 1
  store i32 262, ptr %163, align 8
  br label %164

164:                                              ; preds = %156, %153
  br label %165

165:                                              ; preds = %164
  store i32 1, ptr %26, align 4
  br label %264

166:                                              ; preds = %104
  br label %262

167:                                              ; preds = %83
  %168 = load ptr, ptr %30, align 8
  %169 = call i32 @strcmp(ptr noundef %168, ptr noundef @.str.19) #11
  %170 = icmp ne i32 %169, 0
  br i1 %170, label %171, label %180

171:                                              ; preds = %167
  %172 = load ptr, ptr %30, align 8
  %173 = load ptr, ptr %27, align 8
  %174 = getelementptr inbounds %struct._zend_class_entry, ptr %173, i32 0, i32 1
  %175 = load ptr, ptr %174, align 8
  %176 = getelementptr inbounds %struct._zend_string, ptr %175, i32 0, i32 3
  %177 = getelementptr inbounds [1 x i8], ptr %176, i64 0, i64 0
  %178 = call i32 @strcasecmp(ptr noundef %172, ptr noundef %177) #11
  %179 = icmp ne i32 %178, 0
  br i1 %179, label %261, label %180

180:                                              ; preds = %171, %167
  %181 = load ptr, ptr %27, align 8
  %182 = getelementptr inbounds %struct._zend_class_entry, ptr %181, i32 0, i32 11
  %183 = load ptr, ptr %31, align 8
  %184 = load i64, ptr %32, align 8
  store ptr %182, ptr %10, align 8
  store ptr %183, ptr %11, align 8
  store i64 %184, ptr %12, align 8
  %185 = load ptr, ptr %10, align 8
  %186 = load ptr, ptr %11, align 8
  %187 = load i64, ptr %12, align 8
  %188 = call ptr @zend_hash_str_find(ptr noundef %185, ptr noundef %186, i64 noundef %187) #9
  store ptr %188, ptr %13, align 8
  %189 = load ptr, ptr %13, align 8
  %190 = icmp ne ptr %189, null
  br i1 %190, label %191, label %197

191:                                              ; preds = %180
  %192 = load ptr, ptr %13, align 8
  %193 = load ptr, ptr %192, align 8
  %194 = icmp ne ptr %193, null
  call void @llvm.assume(i1 %194)
  %195 = load ptr, ptr %13, align 8
  %196 = load ptr, ptr %195, align 8
  store ptr %196, ptr %9, align 8
  br label %198

197:                                              ; preds = %180
  store ptr null, ptr %9, align 8
  br label %198

198:                                              ; preds = %197, %191
  %199 = load ptr, ptr %9, align 8
  store ptr %199, ptr %29, align 8
  %200 = load ptr, ptr %29, align 8
  %201 = icmp ne ptr %200, null
  br i1 %201, label %202, label %260

202:                                              ; preds = %198
  %203 = load ptr, ptr %28, align 8
  store ptr %203, ptr %16, align 8
  %204 = load ptr, ptr %16, align 8
  %205 = getelementptr inbounds %struct._zval_struct, ptr %204, i32 0, i32 1
  %206 = getelementptr inbounds %struct.anon.4, ptr %205, i32 0, i32 1
  %207 = load i8, ptr %206, align 1
  %208 = zext i8 %207 to i32
  %209 = icmp ne i32 %208, 0
  br i1 %209, label %210, label %230

210:                                              ; preds = %202
  %211 = load ptr, ptr %16, align 8
  store ptr %211, ptr %4, align 8
  %212 = load ptr, ptr %4, align 8
  %213 = getelementptr inbounds %struct._zval_struct, ptr %212, i32 0, i32 1
  %214 = getelementptr inbounds %struct.anon.4, ptr %213, i32 0, i32 1
  %215 = load i8, ptr %214, align 1
  %216 = zext i8 %215 to i32
  %217 = icmp ne i32 %216, 0
  call void @llvm.assume(i1 %217)
  %218 = load ptr, ptr %4, align 8
  %219 = load ptr, ptr %218, align 8
  store ptr %219, ptr %3, align 8
  %220 = load ptr, ptr %3, align 8
  %221 = load i32, ptr %220, align 4
  %222 = icmp ugt i32 %221, 0
  call void @llvm.assume(i1 %222)
  %223 = load ptr, ptr %3, align 8
  %224 = load i32, ptr %223, align 4
  %225 = add i32 %224, -1
  store i32 %225, ptr %223, align 4
  %226 = icmp ne i32 %225, 0
  br i1 %226, label %230, label %227

227:                                              ; preds = %210
  %228 = load ptr, ptr %16, align 8
  %229 = load ptr, ptr %228, align 8
  call void @_efree(ptr noundef %229) #9
  br label %230

230:                                              ; preds = %227, %210, %202
  br label %231

231:                                              ; preds = %230
  %232 = load ptr, ptr %28, align 8
  store ptr %232, ptr %35, align 8
  %233 = load ptr, ptr %29, align 8
  %234 = getelementptr inbounds %struct._zend_property_info, ptr %233, i32 0, i32 2
  %235 = load ptr, ptr %234, align 8
  store ptr %235, ptr %36, align 8
  %236 = load ptr, ptr %36, align 8
  %237 = load ptr, ptr %35, align 8
  %238 = getelementptr inbounds %struct._zval_struct, ptr %237, i32 0, i32 0
  store ptr %236, ptr %238, align 8
  %239 = load ptr, ptr %36, align 8
  %240 = getelementptr inbounds %struct._zend_string, ptr %239, i32 0, i32 0
  %241 = getelementptr inbounds %struct._zend_refcounted_h, ptr %240, i32 0, i32 1
  %242 = load i32, ptr %241, align 4
  store i32 %242, ptr %19, align 4
  %243 = load i32, ptr %19, align 4
  %244 = and i32 %243, 1008
  %245 = and i32 %244, 64
  %246 = icmp ne i32 %245, 0
  br i1 %246, label %247, label %250

247:                                              ; preds = %231
  %248 = load ptr, ptr %35, align 8
  %249 = getelementptr inbounds %struct._zval_struct, ptr %248, i32 0, i32 1
  store i32 6, ptr %249, align 8
  br label %258

250:                                              ; preds = %231
  %251 = load ptr, ptr %36, align 8
  %252 = getelementptr inbounds %struct._zend_string, ptr %251, i32 0, i32 0
  store ptr %252, ptr %25, align 8
  %253 = load ptr, ptr %25, align 8
  %254 = load i32, ptr %253, align 4
  %255 = add i32 %254, 1
  store i32 %255, ptr %253, align 4
  %256 = load ptr, ptr %35, align 8
  %257 = getelementptr inbounds %struct._zval_struct, ptr %256, i32 0, i32 1
  store i32 262, ptr %257, align 8
  br label %258

258:                                              ; preds = %250, %247
  br label %259

259:                                              ; preds = %258
  store i32 1, ptr %26, align 4
  br label %264

260:                                              ; preds = %198
  br label %261

261:                                              ; preds = %260, %171
  br label %262

262:                                              ; preds = %261, %166
  br label %263

263:                                              ; preds = %262, %2
  store i32 0, ptr %26, align 4
  br label %264

264:                                              ; preds = %263, %259, %165, %82
  %265 = load i32, ptr %26, align 4
  ret i32 %265
}