; Function Attrs: nounwind uwtable
define internal fastcc noundef i32 @is_property_visibility_changed(ptr noundef %0, ptr nocapture noundef %1) unnamed_addr #0 {
  %3 = alloca ptr, align 8
  %4 = alloca ptr, align 8
  %5 = alloca i64, align 8
  %6 = getelementptr inbounds i8, ptr %0, i64 120
  %7 = getelementptr inbounds i8, ptr %0, i64 148
  %8 = load i32, ptr %7, align 4
  %.not = icmp eq i32 %8, 0
  br i1 %.not, label %.thread, label %9

9:                                                ; preds = %2
  store ptr null, ptr %3, align 8
  %10 = load ptr, ptr %1, align 8
  %11 = call i32 @zend_unmangle_property_name_ex(ptr noundef %10, ptr noundef nonnull %3, ptr noundef nonnull %4, ptr noundef nonnull %5) #13
  %12 = icmp eq i32 %11, -1
  br i1 %12, label %13, label %23

13:                                               ; preds = %9
  %14 = getelementptr inbounds i8, ptr %1, i64 9
  %15 = load i8, ptr %14, align 1
  %.not84 = icmp eq i8 %15, 0
  br i1 %.not84, label %.thread, label %16

16:                                               ; preds = %13
  %17 = load ptr, ptr %1, align 8
  %18 = load i32, ptr %17, align 4
  %19 = icmp ne i32 %18, 0
  call void @llvm.assume(i1 %19)
  %20 = add i32 %18, -1
  store i32 %20, ptr %17, align 4
  %.not85 = icmp eq i32 %20, 0
  br i1 %.not85, label %21, label %.thread

21:                                               ; preds = %16
  %22 = load ptr, ptr %1, align 8
  call void @_efree(ptr noundef %22) #13
  br label %.thread

23:                                               ; preds = %9
  %24 = load ptr, ptr %3, align 8
  %25 = icmp eq ptr %24, null
  br i1 %25, label %26, label %51

26:                                               ; preds = %23
  %27 = load ptr, ptr %1, align 8
  %28 = call ptr @zend_hash_find(ptr noundef nonnull %6, ptr noundef %27) #13
  %.not78 = icmp eq ptr %28, null
  br i1 %.not78, label %.thread, label %29

29:                                               ; preds = %26
  %30 = load ptr, ptr %28, align 8, !nonnull !4, !noundef !4
  %31 = getelementptr inbounds i8, ptr %1, i64 8
  %32 = getelementptr inbounds i8, ptr %1, i64 9
  %33 = load i8, ptr %32, align 1
  %.not80 = icmp eq i8 %33, 0
  br i1 %.not80, label %41, label %34

34:                                               ; preds = %29
  %35 = load ptr, ptr %1, align 8
  %36 = load i32, ptr %35, align 4
  %37 = icmp ne i32 %36, 0
  call void @llvm.assume(i1 %37)
  %38 = add i32 %36, -1
  store i32 %38, ptr %35, align 4
  %.not81 = icmp eq i32 %38, 0
  br i1 %.not81, label %39, label %41

39:                                               ; preds = %34
  %40 = load ptr, ptr %1, align 8
  call void @_efree(ptr noundef %40) #13
  br label %41

41:                                               ; preds = %29, %34, %39
  %42 = getelementptr inbounds i8, ptr %30, i64 8
  %43 = load ptr, ptr %42, align 8
  store ptr %43, ptr %1, align 8
  %44 = getelementptr inbounds i8, ptr %43, i64 4
  %45 = load i32, ptr %44, align 4
  %46 = and i32 %45, 64
  %.not82 = icmp eq i32 %46, 0
  br i1 %.not82, label %47, label %50

47:                                               ; preds = %41
  %48 = load i32, ptr %43, align 4
  %49 = add i32 %48, 1
  store i32 %49, ptr %43, align 4
  br label %50

50:                                               ; preds = %41, %47
  %storemerge83 = phi i32 [ 262, %47 ], [ 6, %41 ]
  store i32 %storemerge83, ptr %31, align 8
  br label %.thread

51:                                               ; preds = %23
  %52 = call i32 @strcmp(ptr noundef nonnull dereferenceable(1) %24, ptr noundef nonnull dereferenceable(2) @.str.19) #14
  %.not71 = icmp eq i32 %52, 0
  br i1 %.not71, label %58, label %53

53:                                               ; preds = %51
  %54 = getelementptr inbounds i8, ptr %0, i64 8
  %55 = load ptr, ptr %54, align 8
  %56 = getelementptr inbounds i8, ptr %55, i64 24
  %57 = call i32 @strcasecmp(ptr noundef nonnull %24, ptr noundef nonnull %56) #14
  %.not72 = icmp eq i32 %57, 0
  br i1 %.not72, label %58, label %.thread

58:                                               ; preds = %53, %51
  %59 = load ptr, ptr %4, align 8
  %60 = load i64, ptr %5, align 8
  %61 = call ptr @zend_hash_str_find(ptr noundef nonnull %6, ptr noundef %59, i64 noundef %60) #13
  %.not73 = icmp eq ptr %61, null
  br i1 %.not73, label %.thread, label %62

62:                                               ; preds = %58
  %63 = load ptr, ptr %61, align 8, !nonnull !4, !noundef !4
  %64 = getelementptr inbounds i8, ptr %1, i64 8
  %65 = getelementptr inbounds i8, ptr %1, i64 9
  %66 = load i8, ptr %65, align 1
  %.not75 = icmp eq i8 %66, 0
  br i1 %.not75, label %74, label %67

67:                                               ; preds = %62
  %68 = load ptr, ptr %1, align 8
  %69 = load i32, ptr %68, align 4
  %70 = icmp ne i32 %69, 0
  call void @llvm.assume(i1 %70)
  %71 = add i32 %69, -1
  store i32 %71, ptr %68, align 4
  %.not76 = icmp eq i32 %71, 0
  br i1 %.not76, label %72, label %74

72:                                               ; preds = %67
  %73 = load ptr, ptr %1, align 8
  call void @_efree(ptr noundef %73) #13
  br label %74

74:                                               ; preds = %62, %67, %72
  %75 = getelementptr inbounds i8, ptr %63, i64 8
  %76 = load ptr, ptr %75, align 8
  store ptr %76, ptr %1, align 8
  %77 = getelementptr inbounds i8, ptr %76, i64 4
  %78 = load i32, ptr %77, align 4
  %79 = and i32 %78, 64
  %.not77 = icmp eq i32 %79, 0
  br i1 %.not77, label %80, label %83

80:                                               ; preds = %74
  %81 = load i32, ptr %76, align 4
  %82 = add i32 %81, 1
  store i32 %82, ptr %76, align 4
  br label %83

83:                                               ; preds = %74, %80
  %storemerge = phi i32 [ 262, %80 ], [ 6, %74 ]
  store i32 %storemerge, ptr %64, align 8
  br label %.thread

.thread:                                          ; preds = %58, %26, %2, %53, %13, %16, %21, %83, %50
  %.067 = phi i32 [ 1, %50 ], [ 1, %83 ], [ -1, %21 ], [ -1, %16 ], [ -1, %13 ], [ 0, %53 ], [ 0, %2 ], [ 0, %26 ], [ 0, %58 ]
  ret i32 %.067
}